; Function Attrs: mustprogress nounwind uwtable
define internal fastcc void @_ZN12_GLOBAL__N_111TypePrinter24printDependentNameBeforeEPKN5clang17DependentNameTypeERN4llvm11raw_ostreamE(ptr noundef nonnull align 8 dereferenceable(22) %0, ptr nocapture noundef readonly %1, ptr noundef nonnull align 8 dereferenceable(48) %2) unnamed_addr #0 align 2 {
  %4 = getelementptr inbounds nuw i8, ptr %1, i64 16
  %5 = load i32, ptr %4, align 16
  %6 = lshr i32 %5, 19
  %7 = and i32 %6, 255
  %8 = tail call { ptr, i64 } @_ZN5clang15TypeWithKeyword14getKeywordNameENS_21ElaboratedTypeKeywordE(i32 noundef %7) #16
  %9 = extractvalue { ptr, i64 } %8, 0
  %10 = extractvalue { ptr, i64 } %8, 1
  %11 = getelementptr inbounds nuw i8, ptr %2, i64 24
  %12 = load ptr, ptr %11, align 8
  %13 = getelementptr inbounds nuw i8, ptr %2, i64 32
  %14 = load ptr, ptr %13, align 8
  %15 = ptrtoint ptr %12 to i64
  %16 = ptrtoint ptr %14 to i64
  %17 = sub i64 %15, %16
  %18 = icmp ugt i64 %10, %17
  br i1 %18, label %19, label %21

19:                                               ; preds = %3
  %20 = tail call noundef nonnull align 8 dereferenceable(48) ptr @_ZN4llvm11raw_ostream5writeEPKcm(ptr noundef nonnull align 8 dereferenceable(48) %2, ptr noundef %9, i64 noundef %10) #16
  br label %_ZN4llvm11raw_ostreamlsENS_9StringRefE.exit

21:                                               ; preds = %3
  %.not.i = icmp eq i64 %10, 0
  br i1 %.not.i, label %_ZN4llvm11raw_ostreamlsENS_9StringRefE.exit, label %22

22:                                               ; preds = %21
  tail call void @llvm.memcpy.p0.p0.i64(ptr align 1 %14, ptr align 1 %9, i64 %10, i1 false)
  %23 = load ptr, ptr %13, align 8
  %24 = getelementptr inbounds i8, ptr %23, i64 %10
  store ptr %24, ptr %13, align 8
  br label %_ZN4llvm11raw_ostreamlsENS_9StringRefE.exit

_ZN4llvm11raw_ostreamlsENS_9StringRefE.exit:      ; preds = %19, %21, %22
  %25 = load i32, ptr %4, align 16
  %26 = and i32 %25, 133693440
  %.not = icmp eq i32 %26, 3145728
  br i1 %.not, label %_ZN4llvm11raw_ostreamlsEPKc.exit, label %27

27:                                               ; preds = %_ZN4llvm11raw_ostreamlsENS_9StringRefE.exit
  %28 = load ptr, ptr %11, align 8
  %29 = load ptr, ptr %13, align 8
  %30 = icmp eq ptr %28, %29
  br i1 %30, label %31, label %33

31:                                               ; preds = %27
  %32 = tail call noundef nonnull align 8 dereferenceable(48) ptr @_ZN4llvm11raw_ostream5writeEPKcm(ptr noundef nonnull align 8 dereferenceable(48) %2, ptr noundef nonnull @.str.64, i64 noundef 1) #16
  br label %_ZN4llvm11raw_ostreamlsEPKc.exit

33:                                               ; preds = %27
  store i8 32, ptr %29, align 1
  %34 = load ptr, ptr %13, align 8
  %35 = getelementptr inbounds i8, ptr %34, i64 1
  store ptr %35, ptr %13, align 8
  br label %_ZN4llvm11raw_ostreamlsEPKc.exit

_ZN4llvm11raw_ostreamlsEPKc.exit:                 ; preds = %33, %31, %_ZN4llvm11raw_ostreamlsENS_9StringRefE.exit
  %36 = getelementptr inbounds nuw i8, ptr %1, i64 32
  %37 = load ptr, ptr %36, align 16
  tail call void @_ZNK5clang19NestedNameSpecifier5printERN4llvm11raw_ostreamERKNS_14PrintingPolicyEb(ptr noundef nonnull align 8 dereferenceable(24) %37, ptr noundef nonnull align 8 dereferenceable(48) %2, ptr noundef nonnull align 8 dereferenceable(16) %0, i1 noundef zeroext false) #16
  %38 = getelementptr inbounds nuw i8, ptr %1, i64 40
  %39 = load ptr, ptr %38, align 8
  %40 = getelementptr inbounds nuw i8, ptr %39, i64 16
  %41 = load ptr, ptr %40, align 8
  %42 = getelementptr inbounds i8, ptr %41, i64 16
  %43 = load i64, ptr %41, align 8
  %44 = and i64 %43, 4294967295
  %45 = load ptr, ptr %11, align 8
  %46 = load ptr, ptr %13, align 8
  %47 = ptrtoint ptr %45 to i64
  %48 = ptrtoint ptr %46 to i64
  %49 = sub i64 %47, %48
  %50 = icmp ugt i64 %44, %49
  br i1 %50, label %51, label %53

51:                                               ; preds = %_ZN4llvm11raw_ostreamlsEPKc.exit
  %52 = tail call noundef nonnull align 8 dereferenceable(48) ptr @_ZN4llvm11raw_ostream5writeEPKcm(ptr noundef nonnull align 8 dereferenceable(48) %2, ptr noundef nonnull %42, i64 noundef %44) #16
  br label %_ZN4llvm11raw_ostreamlsENS_9StringRefE.exit14

53:                                               ; preds = %_ZN4llvm11raw_ostreamlsEPKc.exit
  %.not.i12 = icmp eq i64 %44, 0
  br i1 %.not.i12, label %_ZN4llvm11raw_ostreamlsENS_9StringRefE.exit14, label %54

54:                                               ; preds = %53
  tail call void @llvm.memcpy.p0.p0.i64(ptr align 1 %46, ptr nonnull align 1 %42, i64 %44, i1 false)
  %55 = load ptr, ptr %13, align 8
  %56 = getelementptr inbounds i8, ptr %55, i64 %44
  store ptr %56, ptr %13, align 8
  br label %_ZN4llvm11raw_ostreamlsENS_9StringRefE.exit14

_ZN4llvm11raw_ostreamlsENS_9StringRefE.exit14:    ; preds = %51, %53, %54
  %57 = getelementptr inbounds i8, ptr %0, i64 20
  %.val = load i8, ptr %57, align 4
  %58 = trunc i8 %.val to i1
  br i1 %58, label %_ZN12_GLOBAL__N_111TypePrinter22spaceBeforePlaceHolderERN4llvm11raw_ostreamE.exit, label %59

59:                                               ; preds = %_ZN4llvm11raw_ostreamlsENS_9StringRefE.exit14
  %60 = load ptr, ptr %13, align 8
  %61 = load ptr, ptr %11, align 8
  %.not.i.i = icmp ult ptr %60, %61
  br i1 %.not.i.i, label %64, label %62

62:                                               ; preds = %59
  %63 = tail call noundef nonnull align 8 dereferenceable(48) ptr @_ZN4llvm11raw_ostream5writeEh(ptr noundef nonnull align 8 dereferenceable(48) %2, i8 noundef zeroext 32) #16
  br label %_ZN12_GLOBAL__N_111TypePrinter22spaceBeforePlaceHolderERN4llvm11raw_ostreamE.exit

64:                                               ; preds = %59
  %65 = getelementptr inbounds i8, ptr %60, i64 1
  store ptr %65, ptr %13, align 8
  store i8 32, ptr %60, align 1
  br label %_ZN12_GLOBAL__N_111TypePrinter22spaceBeforePlaceHolderERN4llvm11raw_ostreamE.exit

_ZN12_GLOBAL__N_111TypePrinter22spaceBeforePlaceHolderERN4llvm11raw_ostreamE.exit: ; preds = %_ZN4llvm11raw_ostreamlsENS_9StringRefE.exit14, %62, %64
  ret void
}